; Function Attrs: mustprogress nounwind willreturn memory(argmem: readwrite, inaccessiblemem: readwrite) uwtable
define internal void @default_bzfree(ptr readnone captures(none) %0, ptr noundef %1) #6 {
  %.not = icmp eq ptr %1, null
  br i1 %.not, label %4, label %3

3:                                                ; preds = %2
  tail call void @free(ptr noundef nonnull %1) #22
  br label %4

4:                                                ; preds = %3, %2
  ret void
}